target datalayout = "e-m:e-p270:32:32-p271:32:32-p272:64:64-i64:64-i128:128-f80:128-n8:16:32:64-S128"
target triple = "x86_64-unknown-linux-gnu"

%"class.sat::literal" = type { i32 }
%"class.sat::clause" = type { i32, i32, i32, %class.approx_set_tpl, i32, [0 x %"class.sat::literal"] }
%class.approx_set_tpl = type { i32 }

; Function Attrs: mustprogress nounwind uwtable
define linkonce_odr hidden noundef i32 @_ZNK3u2uclEj(ptr noundef nonnull align 1 dereferenceable(1) %this, i32 noundef %u) #4 comdat align 2 {
entry:
  %this.addr = alloca ptr, align 8
  %u.addr = alloca i32, align 4
  store ptr %this, ptr %this.addr, align 8
  store i32 %u, ptr %u.addr, align 4
  %0 = load i32, ptr %u.addr, align 4
  ret i32 %0
}

; Function Attrs: mustprogress nounwind uwtable
define linkonce_odr hidden noundef i32 @_ZNK14approx_set_tplIj3u2ujE3u2sEj(ptr noundef nonnull align 4 dereferenceable(4) %this, i32 noundef %u) #4 comdat align 2 {
entry:
  %this.addr = alloca ptr, align 8
  %u.addr = alloca i32, align 4
  store ptr %this, ptr %this.addr, align 8
  store i32 %u, ptr %u.addr, align 4
  %0 = load i32, ptr %u.addr, align 4
  %and = and i32 %0, 31
  %shl = shl i32 1, %and
  ret i32 %shl
}

; Function Attrs: mustprogress uwtable
define linkonce_odr hidden noundef i32 @_ZNK14approx_set_tplIj3u2ujE3e2uERKj(ptr noundef nonnull align 4 dereferenceable(4) %this, ptr noundef nonnull align 4 dereferenceable(4) %e) #5 comdat align 2 {
entry:
  %this.addr = alloca ptr, align 8
  %e.addr = alloca ptr, align 8
  store ptr %this, ptr %this.addr, align 8
  store ptr %e, ptr %e.addr, align 8
  %this1 = load ptr, ptr %this.addr, align 8
  %0 = load ptr, ptr %e.addr, align 8
  %1 = load i32, ptr %0, align 4
  %call = call noundef i32 @_ZNK3u2uclEj(ptr noundef nonnull align 1 dereferenceable(1) %this1, i32 noundef %1)
  ret i32 %call
}

; Function Attrs: mustprogress uwtable
define linkonce_odr hidden noundef i32 @_ZNK14approx_set_tplIj3u2ujE3e2sERKj(ptr noundef nonnull align 4 dereferenceable(4) %this, ptr noundef nonnull align 4 dereferenceable(4) %e) #5 comdat align 2 {
entry:
  %this.addr = alloca ptr, align 8
  %e.addr = alloca ptr, align 8
  store ptr %this, ptr %this.addr, align 8
  store ptr %e, ptr %e.addr, align 8
  %this1 = load ptr, ptr %this.addr, align 8
  %0 = load ptr, ptr %e.addr, align 8
  %call = call noundef i32 @_ZNK14approx_set_tplIj3u2ujE3e2uERKj(ptr noundef nonnull align 4 dereferenceable(4) %this1, ptr noundef nonnull align 4 dereferenceable(4) %0)
  %call2 = call noundef i32 @_ZNK14approx_set_tplIj3u2ujE3u2sEj(ptr noundef nonnull align 4 dereferenceable(4) %this1, i32 noundef %call)
  ret i32 %call2
}

; Function Attrs: mustprogress uwtable
define linkonce_odr hidden void @_ZN14approx_set_tplIj3u2ujE6insertERKj(ptr noundef nonnull align 4 dereferenceable(4) %this, ptr noundef nonnull align 4 dereferenceable(4) %e) #5 comdat align 2 {
entry:
  %this.addr = alloca ptr, align 8
  %e.addr = alloca ptr, align 8
  store ptr %this, ptr %this.addr, align 8
  store ptr %e, ptr %e.addr, align 8
  %this1 = load ptr, ptr %this.addr, align 8
  %0 = load ptr, ptr %e.addr, align 8
  %call = call noundef i32 @_ZNK14approx_set_tplIj3u2ujE3e2sERKj(ptr noundef nonnull align 4 dereferenceable(4) %this1, ptr noundef nonnull align 4 dereferenceable(4) %0)
  %m_set = getelementptr inbounds %class.approx_set_tpl, ptr %this1, i32 0, i32 0
  %1 = load i32, ptr %m_set, align 4
  %or = or i32 %1, %call
  store i32 %or, ptr %m_set, align 4
  ret void
}

; Function Attrs: mustprogress nounwind uwtable
define linkonce_odr hidden noundef i32 @_ZNK3sat7literal3varEv(ptr noundef nonnull align 4 dereferenceable(4) %this) #4 comdat align 2 {
entry:
  %this.addr = alloca ptr, align 8
  store ptr %this, ptr %this.addr, align 8
  %this1 = load ptr, ptr %this.addr, align 8
  %m_val = getelementptr inbounds %"class.sat::literal", ptr %this1, i32 0, i32 0
  %0 = load i32, ptr %m_val, align 4
  %shr = lshr i32 %0, 1
  ret i32 %shr
}

; Function Attrs: mustprogress nounwind uwtable
define linkonce_odr hidden void @_ZN14approx_set_tplIj3u2ujEC2Ev(ptr noundef nonnull align 4 dereferenceable(4) %this) unnamed_addr #4 comdat align 2 {
entry:
  %this.addr = alloca ptr, align 8
  store ptr %this, ptr %this.addr, align 8
  %this1 = load ptr, ptr %this.addr, align 8
  %m_set = getelementptr inbounds %class.approx_set_tpl, ptr %this1, i32 0, i32 0
  store i32 0, ptr %m_set, align 4
  ret void
}

; Function Attrs: mustprogress uwtable
define hidden i32 @_ZN3sat6clause6approxEjPKNS_7literalE(i32 noundef %num, ptr noundef %lits) #5 align 2 {
entry:
  %retval = alloca %class.approx_set_tpl, align 4
  %num.addr = alloca i32, align 4
  %lits.addr = alloca ptr, align 8
  %i = alloca i32, align 4
  %ref.tmp = alloca i32, align 4
  store i32 %num, ptr %num.addr, align 4
  store ptr %lits, ptr %lits.addr, align 8
  call void @_ZN14approx_set_tplIj3u2ujEC2Ev(ptr noundef nonnull align 4 dereferenceable(4) %retval) #3
  store i32 0, ptr %i, align 4
  br label %for.cond

for.cond:                                         ; preds = %for.inc, %entry
  %0 = load i32, ptr %i, align 4
  %1 = load i32, ptr %num.addr, align 4
  %cmp = icmp ult i32 %0, %1
  br i1 %cmp, label %for.body, label %for.end

for.body:                                         ; preds = %for.cond
  %2 = load ptr, ptr %lits.addr, align 8
  %3 = load i32, ptr %i, align 4
  %idxprom = zext i32 %3 to i64
  %arrayidx = getelementptr inbounds %"class.sat::literal", ptr %2, i64 %idxprom
  %call = call noundef i32 @_ZNK3sat7literal3varEv(ptr noundef nonnull align 4 dereferenceable(4) %arrayidx)
  store i32 %call, ptr %ref.tmp, align 4
  call void @_ZN14approx_set_tplIj3u2ujE6insertERKj(ptr noundef nonnull align 4 dereferenceable(4) %retval, ptr noundef nonnull align 4 dereferenceable(4) %ref.tmp)
  br label %for.inc

for.inc:                                          ; preds = %for.body
  %4 = load i32, ptr %i, align 4
  %inc = add i32 %4, 1
  store i32 %inc, ptr %i, align 4
  br label %for.cond, !llvm.loop !4

for.end:                                          ; preds = %for.cond
  %coerce.dive = getelementptr inbounds %class.approx_set_tpl, ptr %retval, i32 0, i32 0
  %5 = load i32, ptr %coerce.dive, align 4
  ret i32 %5
}

; Function Attrs: mustprogress uwtable
define hidden void @_ZN3sat6clause13update_approxEv(ptr noundef nonnull align 4 dereferenceable(20) %this) #5 align 2 {
entry:
  %this.addr = alloca ptr, align 8
  %ref.tmp = alloca %class.approx_set_tpl, align 4
  store ptr %this, ptr %this.addr, align 8
  %this1 = load ptr, ptr %this.addr, align 8
  %m_size = getelementptr inbounds %"class.sat::clause", ptr %this1, i32 0, i32 1
  %0 = load i32, ptr %m_size, align 4
  %m_lits = getelementptr inbounds %"class.sat::clause", ptr %this1, i32 0, i32 5
  %arraydecay = getelementptr inbounds [0 x %"class.sat::literal"], ptr %m_lits, i64 0, i64 0
  %call = call i32 @_ZN3sat6clause6approxEjPKNS_7literalE(i32 noundef %0, ptr noundef %arraydecay)
  %coerce.dive = getelementptr inbounds %class.approx_set_tpl, ptr %ref.tmp, i32 0, i32 0
  store i32 %call, ptr %coerce.dive, align 4
  %m_approx = getelementptr inbounds %"class.sat::clause", ptr %this1, i32 0, i32 3
  call void @llvm.memcpy.p0.p0.i64(ptr align 4 %m_approx, ptr align 4 %ref.tmp, i64 4, i1 false)
  ret void
}