; Function Attrs: mustprogress nofree norecurse nosync nounwind memory(argmem: readwrite) uwtable
define hidden void @_ZN3sat6clause13update_approxEv(ptr nocapture noundef nonnull align 4 dereferenceable(20) %this) local_unnamed_addr #3 align 2 {
entry:
  %m_size = getelementptr inbounds i8, ptr %this, i64 4
  %0 = load i32, ptr %m_size, align 4
  %m_lits = getelementptr inbounds i8, ptr %this, i64 20
  %cmp4.not.i = icmp eq i32 %0, 0
  br i1 %cmp4.not.i, label %_ZN3sat6clause6approxEjPKNS_7literalE.exit, label %for.body.preheader.i

for.body.preheader.i:                             ; preds = %entry
  %wide.trip.count.i = zext i32 %0 to i64
  br label %for.body.i

for.body.i:                                       ; preds = %for.body.i, %for.body.preheader.i
  %indvars.iv.i = phi i64 [ 0, %for.body.preheader.i ], [ %indvars.iv.next.i, %for.body.i ]
  %retval.sroa.0.05.i = phi i32 [ 0, %for.body.preheader.i ], [ %or.i.i, %for.body.i ]
  %arrayidx.i = getelementptr inbounds %"class.sat::literal", ptr %m_lits, i64 %indvars.iv.i
  %1 = load i32, ptr %arrayidx.i, align 4
  %shr.i.i = lshr i32 %1, 1
  %and.i.i.i.i = and i32 %shr.i.i, 31
  %shl.i.i.i.i = shl nuw i32 1, %and.i.i.i.i
  %or.i.i = or i32 %shl.i.i.i.i, %retval.sroa.0.05.i
  %indvars.iv.next.i = add nuw nsw i64 %indvars.iv.i, 1
  %exitcond.not.i = icmp eq i64 %indvars.iv.next.i, %wide.trip.count.i
  br i1 %exitcond.not.i, label %_ZN3sat6clause6approxEjPKNS_7literalE.exit, label %for.body.i, !llvm.loop !4

_ZN3sat6clause6approxEjPKNS_7literalE.exit:       ; preds = %for.body.i, %entry
  %retval.sroa.0.0.lcssa.i = phi i32 [ 0, %entry ], [ %or.i.i, %for.body.i ]
  %m_approx = getelementptr inbounds i8, ptr %this, i64 12
  store i32 %retval.sroa.0.0.lcssa.i, ptr %m_approx, align 4
  ret void
}